; Function Attrs: mustprogress uwtable
define hidden void @_ZNK4cvc58internal3smt11SygusSolver17getSynthFunctionsEv(ptr noalias sret(%"class.std::vector.784") align 8 %agg.result, ptr nocapture noundef nonnull readonly align 8 dereferenceable(456) %this) local_unnamed_addr #3 align 2 personality ptr @__gxx_personality_v0 {
entry:
  %st = alloca %"class.cvc5::internal::TypeNode", align 8
  tail call void @llvm.memset.p0.i64(ptr noundef nonnull align 8 dereferenceable(24) %agg.result, i8 0, i64 24, i1 false)
  %d_list.i = getelementptr inbounds i8, ptr %this, i64 304
  %0 = load ptr, ptr %d_list.i, align 8
  %_M_finish.i.i = getelementptr inbounds i8, ptr %this, i64 312
  %1 = load ptr, ptr %_M_finish.i.i, align 8
  %cmp.i.not6 = icmp eq ptr %0, %1
  br i1 %cmp.i.not6, label %nrvo.skipdtor, label %for.body

for.body:                                         ; preds = %entry, %_ZN4cvc58internal8TypeNodeD2Ev.exit
  %__begin2.sroa.0.07 = phi ptr [ %incdec.ptr.i, %_ZN4cvc58internal8TypeNodeD2Ev.exit ], [ %0, %entry ]
  invoke void @_ZN4cvc58internal6theory11quantifiers10SygusUtils12getSygusTypeERKNS0_12NodeTemplateILb1EEE(ptr nonnull sret(%"class.cvc5::internal::TypeNode") align 8 %st, ptr noundef nonnull align 8 dereferenceable(8) %__begin2.sroa.0.07)
          to label %invoke.cont7 unwind label %lpad

invoke.cont7:                                     ; preds = %for.body
  %call10 = invoke noundef nonnull align 1 ptr @_ZNSt6vectorISt4pairIN4cvc58internal12NodeTemplateILb1EEENS2_8TypeNodeEESaIS6_EE12emplace_backIJRKS4_RS5_EEERS6_DpOT_(ptr noundef nonnull align 8 dereferenceable(24) %agg.result, ptr noundef nonnull align 8 dereferenceable(8) %__begin2.sroa.0.07, ptr noundef nonnull align 8 dereferenceable(8) %st)
          to label %invoke.cont9 unwind label %lpad8

invoke.cont9:                                     ; preds = %invoke.cont7
  %2 = load ptr, ptr %st, align 8
  %bf.load.i.i = load i64, ptr %2, align 8
  %3 = and i64 %bf.load.i.i, 1152920405095219200
  %cmp.not.i.i = icmp eq i64 %3, 1152920405095219200
  br i1 %cmp.not.i.i, label %_ZN4cvc58internal8TypeNodeD2Ev.exit, label %if.then.i.i

if.then.i.i:                                      ; preds = %invoke.cont9
  %bf.value.i.i = add i64 %bf.load.i.i, 1152920405095219200
  %bf.shl.i.i = and i64 %bf.value.i.i, 1152920405095219200
  %bf.clear7.i.i = and i64 %bf.load.i.i, -1152920405095219201
  %bf.set.i.i = or disjoint i64 %bf.shl.i.i, %bf.clear7.i.i
  store i64 %bf.set.i.i, ptr %2, align 8
  %cmp12.i.i = icmp eq i64 %bf.shl.i.i, 0
  br i1 %cmp12.i.i, label %if.then13.i.i, label %_ZN4cvc58internal8TypeNodeD2Ev.exit

if.then13.i.i:                                    ; preds = %if.then.i.i
  invoke void @_ZN4cvc58internal4expr9NodeValue15markForDeletionEv(ptr noundef nonnull align 8 dereferenceable(16) %2)
          to label %_ZN4cvc58internal8TypeNodeD2Ev.exit unwind label %terminate.lpad.i

terminate.lpad.i:                                 ; preds = %if.then13.i.i
  %4 = landingpad { ptr, i32 }
          catch ptr null
  %5 = extractvalue { ptr, i32 } %4, 0
  call void @__clang_call_terminate(ptr %5) #21
  unreachable

_ZN4cvc58internal8TypeNodeD2Ev.exit:              ; preds = %invoke.cont9, %if.then.i.i, %if.then13.i.i
  %incdec.ptr.i = getelementptr inbounds i8, ptr %__begin2.sroa.0.07, i64 8
  %cmp.i.not = icmp eq ptr %incdec.ptr.i, %1
  br i1 %cmp.i.not, label %nrvo.skipdtor, label %for.body

lpad:                                             ; preds = %for.body
  %6 = landingpad { ptr, i32 }
          cleanup
  br label %ehcleanup

lpad8:                                            ; preds = %invoke.cont7
  %7 = landingpad { ptr, i32 }
          cleanup
  call void @_ZN4cvc58internal8TypeNodeD2Ev(ptr noundef nonnull align 8 dereferenceable(8) %st) #19
  br label %ehcleanup

nrvo.skipdtor:                                    ; preds = %_ZN4cvc58internal8TypeNodeD2Ev.exit, %entry
  ret void

ehcleanup:                                        ; preds = %lpad8, %lpad
  %.pn = phi { ptr, i32 } [ %7, %lpad8 ], [ %6, %lpad ]
  call void @_ZNSt6vectorISt4pairIN4cvc58internal12NodeTemplateILb1EEENS2_8TypeNodeEESaIS6_EED2Ev(ptr noundef nonnull align 8 dereferenceable(24) %agg.result) #19
  resume { ptr, i32 } %.pn
}